; Function Attrs: nounwind uwtable
define internal range(i32 -1, 1) i32 @H5P__lacc_elink_pref_dec(ptr noundef captures(none) %0, ptr noundef writeonly captures(none) %1) #0 {
  %3 = load ptr, ptr %0, align 8
  %4 = getelementptr inbounds nuw i8, ptr %3, i64 1
  store ptr %4, ptr %0, align 8
  %5 = load i8, ptr %3, align 1
  %6 = zext i8 %5 to i64
  %7 = getelementptr inbounds nuw i8, ptr %4, i64 %6
  %.not31 = icmp eq i8 %5, 0
  br i1 %.not31, label %._crit_edge.thread, label %.lr.ph

._crit_edge.thread:                               ; preds = %2
  %8 = getelementptr inbounds nuw i8, ptr %7, i64 %6
  store ptr %8, ptr %0, align 8
  br label %30

.lr.ph:                                           ; preds = %2, %.lr.ph
  %9 = phi ptr [ %11, %.lr.ph ], [ %7, %2 ]
  %.030 = phi i64 [ %15, %.lr.ph ], [ 0, %2 ]
  %.02629 = phi i64 [ %14, %.lr.ph ], [ 0, %2 ]
  %10 = shl i64 %.02629, 8
  %11 = getelementptr inbounds i8, ptr %9, i64 -1
  store ptr %11, ptr %0, align 8
  %12 = load i8, ptr %11, align 1
  %13 = zext i8 %12 to i64
  %14 = or disjoint i64 %10, %13
  %15 = add nuw nsw i64 %.030, 1
  %exitcond.not = icmp eq i64 %15, %6
  br i1 %exitcond.not, label %._crit_edge, label %.lr.ph

._crit_edge:                                      ; preds = %.lr.ph
  %16 = getelementptr inbounds nuw i8, ptr %11, i64 %6
  store ptr %16, ptr %0, align 8
  %.not = icmp eq i64 %14, 0
  br i1 %.not, label %30, label %17

17:                                               ; preds = %._crit_edge
  %18 = add i64 %14, 1
  %19 = tail call noalias ptr @malloc(i64 noundef %18) #10
  store ptr %19, ptr %1, align 8
  %20 = icmp eq ptr %19, null
  br i1 %20, label %21, label %25

21:                                               ; preds = %17
  %22 = load i64, ptr @H5E_RESOURCE_g, align 8
  %23 = load i64, ptr @H5E_CANTINIT_g, align 8
  %24 = tail call i32 (ptr, ptr, i32, i64, i64, ptr, ...) @H5E_printf_stack(ptr noundef nonnull @.str.1, ptr noundef nonnull @__func__.H5P__lacc_elink_pref_dec, i32 noundef 726, i64 noundef %22, i64 noundef %23, ptr noundef nonnull @.str.26) #8
  br label %31

25:                                               ; preds = %17
  %26 = load ptr, ptr %0, align 8
  %27 = tail call ptr @strncpy(ptr noundef nonnull %19, ptr noundef %26, i64 noundef %14) #8
  %28 = getelementptr inbounds i8, ptr %19, i64 %14
  store i8 0, ptr %28, align 1
  %29 = getelementptr inbounds i8, ptr %26, i64 %14
  store ptr %29, ptr %0, align 8
  br label %31

30:                                               ; preds = %._crit_edge.thread, %._crit_edge
  store ptr null, ptr %1, align 8
  br label %31

31:                                               ; preds = %25, %30, %21
  %.025 = phi i32 [ -1, %21 ], [ 0, %25 ], [ 0, %30 ]
  ret i32 %.025
}